target datalayout = "e-m:e-p270:32:32-p271:32:32-p272:64:64-i64:64-i128:128-f80:128-n8:16:32:64-S128"
target triple = "x86_64-pc-linux-gnu"

%struct.mbedtls_asn1_named_data = type { %struct.mbedtls_asn1_buf, %struct.mbedtls_asn1_buf, ptr, i8 }
%struct.mbedtls_asn1_buf = type { i32, i64, ptr }

; Function Attrs: nounwind uwtable
define hidden ptr @mbedtls_asn1_store_named_data(ptr noundef %0, ptr noundef %1, i64 noundef %2, ptr noundef %3, i64 noundef %4) #0 {
  %6 = alloca ptr, align 8
  %7 = alloca ptr, align 8
  %8 = alloca ptr, align 8
  %9 = alloca i64, align 8
  %10 = alloca ptr, align 8
  %11 = alloca i64, align 8
  %12 = alloca ptr, align 8
  %13 = alloca i32, align 4
  %14 = alloca ptr, align 8
  store ptr %0, ptr %7, align 8, !tbaa !26
  store ptr %1, ptr %8, align 8, !tbaa !9
  store i64 %2, ptr %9, align 8, !tbaa !11
  store ptr %3, ptr %10, align 8, !tbaa !9
  store i64 %4, ptr %11, align 8, !tbaa !11
  call void @llvm.lifetime.start.p0(i64 8, ptr %12) #6
  %15 = load ptr, ptr %7, align 8, !tbaa !26
  %16 = load ptr, ptr %15, align 8, !tbaa !28
  %17 = load ptr, ptr %8, align 8, !tbaa !9
  %18 = load i64, ptr %9, align 8, !tbaa !11
  %19 = call ptr @mbedtls_asn1_find_named_data(ptr noundef %16, ptr noundef %17, i64 noundef %18)
  store ptr %19, ptr %12, align 8, !tbaa !28
  %20 = icmp eq ptr %19, null
  br i1 %20, label %21, label %81

21:                                               ; preds = %5
  %22 = call noalias ptr @calloc(i64 noundef 1, i64 noundef 64) #7
  store ptr %22, ptr %12, align 8, !tbaa !28
  %23 = load ptr, ptr %12, align 8, !tbaa !28
  %24 = icmp eq ptr %23, null
  br i1 %24, label %25, label %26

25:                                               ; preds = %21
  store ptr null, ptr %6, align 8
  store i32 1, ptr %13, align 4
  br label %138

26:                                               ; preds = %21
  %27 = load i64, ptr %9, align 8, !tbaa !11
  %28 = load ptr, ptr %12, align 8, !tbaa !28
  %29 = getelementptr inbounds nuw %struct.mbedtls_asn1_named_data, ptr %28, i32 0, i32 0
  %30 = getelementptr inbounds nuw %struct.mbedtls_asn1_buf, ptr %29, i32 0, i32 1
  store i64 %27, ptr %30, align 8, !tbaa !30
  %31 = load i64, ptr %9, align 8, !tbaa !11
  %32 = call noalias ptr @calloc(i64 noundef 1, i64 noundef %31) #7
  %33 = load ptr, ptr %12, align 8, !tbaa !28
  %34 = getelementptr inbounds nuw %struct.mbedtls_asn1_named_data, ptr %33, i32 0, i32 0
  %35 = getelementptr inbounds nuw %struct.mbedtls_asn1_buf, ptr %34, i32 0, i32 2
  store ptr %32, ptr %35, align 8, !tbaa !33
  %36 = load ptr, ptr %12, align 8, !tbaa !28
  %37 = getelementptr inbounds nuw %struct.mbedtls_asn1_named_data, ptr %36, i32 0, i32 0
  %38 = getelementptr inbounds nuw %struct.mbedtls_asn1_buf, ptr %37, i32 0, i32 2
  %39 = load ptr, ptr %38, align 8, !tbaa !33
  %40 = icmp eq ptr %39, null
  br i1 %40, label %41, label %43

41:                                               ; preds = %26
  %42 = load ptr, ptr %12, align 8, !tbaa !28
  call void @free(ptr noundef %42) #6
  store ptr null, ptr %6, align 8
  store i32 1, ptr %13, align 4
  br label %138

43:                                               ; preds = %26
  %44 = load ptr, ptr %12, align 8, !tbaa !28
  %45 = getelementptr inbounds nuw %struct.mbedtls_asn1_named_data, ptr %44, i32 0, i32 0
  %46 = getelementptr inbounds nuw %struct.mbedtls_asn1_buf, ptr %45, i32 0, i32 2
  %47 = load ptr, ptr %46, align 8, !tbaa !33
  %48 = load ptr, ptr %8, align 8, !tbaa !9
  %49 = load i64, ptr %9, align 8, !tbaa !11
  call void @llvm.memcpy.p0.p0.i64(ptr align 1 %47, ptr align 1 %48, i64 %49, i1 false)
  %50 = load i64, ptr %11, align 8, !tbaa !11
  %51 = load ptr, ptr %12, align 8, !tbaa !28
  %52 = getelementptr inbounds nuw %struct.mbedtls_asn1_named_data, ptr %51, i32 0, i32 1
  %53 = getelementptr inbounds nuw %struct.mbedtls_asn1_buf, ptr %52, i32 0, i32 1
  store i64 %50, ptr %53, align 8, !tbaa !34
  %54 = load i64, ptr %11, align 8, !tbaa !11
  %55 = icmp ne i64 %54, 0
  br i1 %55, label %56, label %74

56:                                               ; preds = %43
  %57 = load i64, ptr %11, align 8, !tbaa !11
  %58 = call noalias ptr @calloc(i64 noundef 1, i64 noundef %57) #7
  %59 = load ptr, ptr %12, align 8, !tbaa !28
  %60 = getelementptr inbounds nuw %struct.mbedtls_asn1_named_data, ptr %59, i32 0, i32 1
  %61 = getelementptr inbounds nuw %struct.mbedtls_asn1_buf, ptr %60, i32 0, i32 2
  store ptr %58, ptr %61, align 8, !tbaa !35
  %62 = load ptr, ptr %12, align 8, !tbaa !28
  %63 = getelementptr inbounds nuw %struct.mbedtls_asn1_named_data, ptr %62, i32 0, i32 1
  %64 = getelementptr inbounds nuw %struct.mbedtls_asn1_buf, ptr %63, i32 0, i32 2
  %65 = load ptr, ptr %64, align 8, !tbaa !35
  %66 = icmp eq ptr %65, null
  br i1 %66, label %67, label %73

67:                                               ; preds = %56
  %68 = load ptr, ptr %12, align 8, !tbaa !28
  %69 = getelementptr inbounds nuw %struct.mbedtls_asn1_named_data, ptr %68, i32 0, i32 0
  %70 = getelementptr inbounds nuw %struct.mbedtls_asn1_buf, ptr %69, i32 0, i32 2
  %71 = load ptr, ptr %70, align 8, !tbaa !33
  call void @free(ptr noundef %71) #6
  %72 = load ptr, ptr %12, align 8, !tbaa !28
  call void @free(ptr noundef %72) #6
  store ptr null, ptr %6, align 8
  store i32 1, ptr %13, align 4
  br label %138

73:                                               ; preds = %56
  br label %74

74:                                               ; preds = %73, %43
  %75 = load ptr, ptr %7, align 8, !tbaa !26
  %76 = load ptr, ptr %75, align 8, !tbaa !28
  %77 = load ptr, ptr %12, align 8, !tbaa !28
  %78 = getelementptr inbounds nuw %struct.mbedtls_asn1_named_data, ptr %77, i32 0, i32 2
  store ptr %76, ptr %78, align 8, !tbaa !36
  %79 = load ptr, ptr %12, align 8, !tbaa !28
  %80 = load ptr, ptr %7, align 8, !tbaa !26
  store ptr %79, ptr %80, align 8, !tbaa !28
  br label %123

81:                                               ; preds = %5
  %82 = load i64, ptr %11, align 8, !tbaa !11
  %83 = icmp eq i64 %82, 0
  br i1 %83, label %84, label %92

84:                                               ; preds = %81
  %85 = load ptr, ptr %12, align 8, !tbaa !28
  %86 = getelementptr inbounds nuw %struct.mbedtls_asn1_named_data, ptr %85, i32 0, i32 1
  %87 = getelementptr inbounds nuw %struct.mbedtls_asn1_buf, ptr %86, i32 0, i32 2
  %88 = load ptr, ptr %87, align 8, !tbaa !35
  call void @free(ptr noundef %88) #6
  %89 = load ptr, ptr %12, align 8, !tbaa !28
  %90 = getelementptr inbounds nuw %struct.mbedtls_asn1_named_data, ptr %89, i32 0, i32 1
  %91 = getelementptr inbounds nuw %struct.mbedtls_asn1_buf, ptr %90, i32 0, i32 2
  store ptr null, ptr %91, align 8, !tbaa !35
  br label %122

92:                                               ; preds = %81
  %93 = load ptr, ptr %12, align 8, !tbaa !28
  %94 = getelementptr inbounds nuw %struct.mbedtls_asn1_named_data, ptr %93, i32 0, i32 1
  %95 = getelementptr inbounds nuw %struct.mbedtls_asn1_buf, ptr %94, i32 0, i32 1
  %96 = load i64, ptr %95, align 8, !tbaa !34
  %97 = load i64, ptr %11, align 8, !tbaa !11
  %98 = icmp ne i64 %96, %97
  br i1 %98, label %99, label %121

99:                                               ; preds = %92
  call void @llvm.lifetime.start.p0(i64 8, ptr %14) #6
  %100 = load i64, ptr %11, align 8, !tbaa !11
  %101 = call noalias ptr @calloc(i64 noundef 1, i64 noundef %100) #7
  store ptr %101, ptr %14, align 8, !tbaa !37
  %102 = load ptr, ptr %14, align 8, !tbaa !37
  %103 = icmp eq ptr %102, null
  br i1 %103, label %104, label %105

104:                                              ; preds = %99
  store ptr null, ptr %6, align 8
  store i32 1, ptr %13, align 4
  br label %118

105:                                              ; preds = %99
  %106 = load ptr, ptr %12, align 8, !tbaa !28
  %107 = getelementptr inbounds nuw %struct.mbedtls_asn1_named_data, ptr %106, i32 0, i32 1
  %108 = getelementptr inbounds nuw %struct.mbedtls_asn1_buf, ptr %107, i32 0, i32 2
  %109 = load ptr, ptr %108, align 8, !tbaa !35
  call void @free(ptr noundef %109) #6
  %110 = load ptr, ptr %14, align 8, !tbaa !37
  %111 = load ptr, ptr %12, align 8, !tbaa !28
  %112 = getelementptr inbounds nuw %struct.mbedtls_asn1_named_data, ptr %111, i32 0, i32 1
  %113 = getelementptr inbounds nuw %struct.mbedtls_asn1_buf, ptr %112, i32 0, i32 2
  store ptr %110, ptr %113, align 8, !tbaa !35
  %114 = load i64, ptr %11, align 8, !tbaa !11
  %115 = load ptr, ptr %12, align 8, !tbaa !28
  %116 = getelementptr inbounds nuw %struct.mbedtls_asn1_named_data, ptr %115, i32 0, i32 1
  %117 = getelementptr inbounds nuw %struct.mbedtls_asn1_buf, ptr %116, i32 0, i32 1
  store i64 %114, ptr %117, align 8, !tbaa !34
  store i32 0, ptr %13, align 4
  br label %118

118:                                              ; preds = %105, %104
  call void @llvm.lifetime.end.p0(i64 8, ptr %14) #6
  %119 = load i32, ptr %13, align 4
  switch i32 %119, label %138 [
    i32 0, label %120
  ]

120:                                              ; preds = %118
  br label %121

121:                                              ; preds = %120, %92
  br label %122

122:                                              ; preds = %121, %84
  br label %123

123:                                              ; preds = %122, %74
  %124 = load ptr, ptr %10, align 8, !tbaa !9
  %125 = icmp ne ptr %124, null
  br i1 %125, label %126, label %136

126:                                              ; preds = %123
  %127 = load i64, ptr %11, align 8, !tbaa !11
  %128 = icmp ne i64 %127, 0
  br i1 %128, label %129, label %136

129:                                              ; preds = %126
  %130 = load ptr, ptr %12, align 8, !tbaa !28
  %131 = getelementptr inbounds nuw %struct.mbedtls_asn1_named_data, ptr %130, i32 0, i32 1
  %132 = getelementptr inbounds nuw %struct.mbedtls_asn1_buf, ptr %131, i32 0, i32 2
  %133 = load ptr, ptr %132, align 8, !tbaa !35
  %134 = load ptr, ptr %10, align 8, !tbaa !9
  %135 = load i64, ptr %11, align 8, !tbaa !11
  call void @llvm.memcpy.p0.p0.i64(ptr align 1 %133, ptr align 1 %134, i64 %135, i1 false)
  br label %136

136:                                              ; preds = %129, %126, %123
  %137 = load ptr, ptr %12, align 8, !tbaa !28
  store ptr %137, ptr %6, align 8
  store i32 1, ptr %13, align 4
  br label %138

138:                                              ; preds = %136, %118, %67, %41, %25
  call void @llvm.lifetime.end.p0(i64 8, ptr %12) #6
  %139 = load ptr, ptr %6, align 8
  ret ptr %139
}