; Function Attrs: nounwind uwtable
define hidden ptr @mbedtls_asn1_store_named_data(ptr noundef captures(none) %0, ptr noundef %1, i64 noundef %2, ptr noundef readonly %3, i64 noundef %4) local_unnamed_addr #4 {
  %6 = load ptr, ptr %0, align 8, !tbaa !17
  %7 = tail call ptr @mbedtls_asn1_find_named_data(ptr noundef %6, ptr noundef %1, i64 noundef %2) #10
  %8 = icmp eq ptr %7, null
  br i1 %8, label %9, label %28

9:                                                ; preds = %5
  %10 = tail call noalias dereferenceable_or_null(64) ptr @calloc(i64 noundef 1, i64 noundef 64) #11
  %11 = icmp eq ptr %10, null
  br i1 %11, label %.critedge, label %12

12:                                               ; preds = %9
  %13 = getelementptr inbounds nuw i8, ptr %10, i64 8
  store i64 %2, ptr %13, align 8, !tbaa !19
  %14 = tail call noalias ptr @calloc(i64 noundef 1, i64 noundef %2) #11
  %15 = getelementptr inbounds nuw i8, ptr %10, i64 16
  store ptr %14, ptr %15, align 8, !tbaa !24
  %16 = icmp eq ptr %14, null
  br i1 %16, label %17, label %18

17:                                               ; preds = %12
  tail call void @free(ptr noundef nonnull %10) #10
  br label %.critedge

18:                                               ; preds = %12
  tail call void @llvm.memcpy.p0.p0.i64(ptr nonnull align 1 %14, ptr align 1 %1, i64 %2, i1 false)
  %19 = getelementptr inbounds nuw i8, ptr %10, i64 32
  store i64 %4, ptr %19, align 8, !tbaa !25
  %.not54 = icmp eq i64 %4, 0
  br i1 %.not54, label %25, label %20

20:                                               ; preds = %18
  %21 = tail call noalias ptr @calloc(i64 noundef 1, i64 noundef %4) #11
  %22 = getelementptr inbounds nuw i8, ptr %10, i64 40
  store ptr %21, ptr %22, align 8, !tbaa !26
  %23 = icmp eq ptr %21, null
  br i1 %23, label %24, label %25

24:                                               ; preds = %20
  tail call void @free(ptr noundef nonnull %14) #10
  tail call void @free(ptr noundef nonnull %10) #10
  br label %.critedge

25:                                               ; preds = %20, %18
  %26 = load ptr, ptr %0, align 8, !tbaa !17
  %27 = getelementptr inbounds nuw i8, ptr %10, i64 48
  store ptr %26, ptr %27, align 8, !tbaa !27
  store ptr %10, ptr %0, align 8, !tbaa !17
  br label %40

28:                                               ; preds = %5
  %29 = icmp eq i64 %4, 0
  br i1 %29, label %.thread, label %32

.thread:                                          ; preds = %28
  %30 = getelementptr inbounds nuw i8, ptr %7, i64 40
  %31 = load ptr, ptr %30, align 8, !tbaa !26
  tail call void @free(ptr noundef %31) #10
  store ptr null, ptr %30, align 8, !tbaa !26
  br label %.critedge

32:                                               ; preds = %28
  %33 = getelementptr inbounds nuw i8, ptr %7, i64 32
  %34 = load i64, ptr %33, align 8, !tbaa !25
  %.not = icmp eq i64 %34, %4
  br i1 %.not, label %40, label %35

35:                                               ; preds = %32
  %36 = tail call noalias ptr @calloc(i64 noundef 1, i64 noundef %4) #11
  %.not53 = icmp eq ptr %36, null
  br i1 %.not53, label %.critedge, label %37

37:                                               ; preds = %35
  %38 = getelementptr inbounds nuw i8, ptr %7, i64 40
  %39 = load ptr, ptr %38, align 8, !tbaa !26
  tail call void @free(ptr noundef %39) #10
  store ptr %36, ptr %38, align 8, !tbaa !26
  store i64 %4, ptr %33, align 8, !tbaa !25
  br label %40

40:                                               ; preds = %37, %32, %25
  %.046 = phi ptr [ %10, %25 ], [ %7, %37 ], [ %7, %32 ]
  %41 = icmp ne ptr %3, null
  %42 = icmp ne i64 %4, 0
  %or.cond = and i1 %41, %42
  br i1 %or.cond, label %43, label %.critedge

43:                                               ; preds = %40
  %44 = getelementptr inbounds nuw i8, ptr %.046, i64 40
  %45 = load ptr, ptr %44, align 8, !tbaa !26
  tail call void @llvm.memcpy.p0.p0.i64(ptr align 1 %45, ptr nonnull align 1 %3, i64 %4, i1 false)
  br label %.critedge

.critedge:                                        ; preds = %.thread, %35, %40, %43, %9, %24, %17
  %.0 = phi ptr [ null, %17 ], [ null, %24 ], [ null, %9 ], [ %.046, %43 ], [ %.046, %40 ], [ null, %35 ], [ %7, %.thread ]
  ret ptr %.0
}